; Function Attrs: mustprogress uwtable
define hidden void @_ZN2dd11bdd_manager7mk_usubERK7svectorIbjE(ptr noalias sret(%class.svector.7) align 8 %agg.result, ptr nocapture nonnull readnone align 8 %this, ptr nocapture noundef nonnull readonly align 8 dereferenceable(8) %b) local_unnamed_addr #3 align 2 personality ptr @__gxx_personality_v0 {
entry:
  store ptr null, ptr %agg.result, align 8
  %0 = load ptr, ptr %b, align 8
  %cmp.i = icmp eq ptr %0, null
  br i1 %cmp.i, label %nrvo.skipdtor, label %_ZNK6vectorIbLb0EjE5emptyEv.exit

_ZNK6vectorIbLb0EjE5emptyEv.exit:                 ; preds = %entry
  %arrayidx.i = getelementptr inbounds i8, ptr %0, i64 -4
  %1 = load i32, ptr %arrayidx.i, align 4
  %cmp3.i = icmp eq i32 %1, 0
  br i1 %cmp3.i, label %nrvo.skipdtor, label %if.then.i

lpad.loopexit:                                    ; preds = %if.then.i26
  %lpad.loopexit31 = landingpad { ptr, i32 }
          cleanup
  br label %lpad

lpad.loopexit.split-lp:                           ; preds = %if.then.i
  %lpad.loopexit.split-lp32 = landingpad { ptr, i32 }
          cleanup
  br label %lpad

lpad:                                             ; preds = %lpad.loopexit.split-lp, %lpad.loopexit
  %lpad.phi = phi { ptr, i32 } [ %lpad.loopexit31, %lpad.loopexit ], [ %lpad.loopexit.split-lp32, %lpad.loopexit.split-lp ]
  tail call void @_ZN7svectorIbjED2Ev(ptr noundef nonnull align 8 dereferenceable(8) %agg.result) #24
  resume { ptr, i32 } %lpad.phi

if.then.i:                                        ; preds = %_ZNK6vectorIbLb0EjE5emptyEv.exit
  invoke void @_ZN6vectorIbLb0EjE13expand_vectorEv(ptr noundef nonnull align 8 dereferenceable(8) %agg.result)
          to label %_ZN6vectorIbLb0EjE9push_backERKb.exit unwind label %lpad.loopexit.split-lp

_ZN6vectorIbLb0EjE9push_backERKb.exit:            ; preds = %if.then.i
  %.pre.i = load ptr, ptr %agg.result, align 8
  %arrayidx8.phi.trans.insert.i = getelementptr inbounds i8, ptr %.pre.i, i64 -4
  %.pre1.i = load i32, ptr %arrayidx8.phi.trans.insert.i, align 4
  %idx.ext.i = zext i32 %.pre1.i to i64
  %add.ptr.i = getelementptr inbounds i8, ptr %.pre.i, i64 %idx.ext.i
  %2 = load i8, ptr %0, align 1
  %3 = and i8 %2, 1
  store i8 %3, ptr %add.ptr.i, align 1
  %4 = load ptr, ptr %agg.result, align 8
  %arrayidx10.i = getelementptr inbounds i8, ptr %4, i64 -4
  %5 = load i32, ptr %arrayidx10.i, align 4
  %inc.i = add i32 %5, 1
  store i32 %inc.i, ptr %arrayidx10.i, align 4
  br label %for.cond

for.cond:                                         ; preds = %_ZN6vectorIbLb0EjE9push_backERKb.exit, %for.inc
  %indvars.iv = phi i64 [ 1, %_ZN6vectorIbLb0EjE9push_backERKb.exit ], [ %indvars.iv.next, %for.inc ]
  %carry.0 = phi i1 [ false, %_ZN6vectorIbLb0EjE9push_backERKb.exit ], [ %12, %for.inc ]
  %6 = load ptr, ptr %b, align 8
  %cmp.i11 = icmp eq ptr %6, null
  br i1 %cmp.i11, label %_ZNK6vectorIbLb0EjE4sizeEv.exit, label %if.end.i

if.end.i:                                         ; preds = %for.cond
  %arrayidx.i12 = getelementptr inbounds i8, ptr %6, i64 -4
  %7 = load i32, ptr %arrayidx.i12, align 4
  br label %_ZNK6vectorIbLb0EjE4sizeEv.exit

_ZNK6vectorIbLb0EjE4sizeEv.exit:                  ; preds = %for.cond, %if.end.i
  %retval.0.i = phi i32 [ %7, %if.end.i ], [ 0, %for.cond ]
  %8 = zext i32 %retval.0.i to i64
  %cmp = icmp ult i64 %indvars.iv, %8
  br i1 %cmp, label %for.body, label %nrvo.skipdtor

for.body:                                         ; preds = %_ZNK6vectorIbLb0EjE4sizeEv.exit
  br i1 %carry.0, label %lor.end, label %lor.rhs

lor.rhs:                                          ; preds = %for.body
  %9 = getelementptr i8, ptr %6, i64 %indvars.iv
  %arrayidx.i13 = getelementptr i8, ptr %9, i64 -1
  %10 = load i8, ptr %arrayidx.i13, align 1
  %11 = and i8 %10, 1
  %tobool10 = icmp ne i8 %11, 0
  br label %lor.end

lor.end:                                          ; preds = %lor.rhs, %for.body
  %12 = phi i1 [ true, %for.body ], [ %tobool10, %lor.rhs ]
  %arrayidx.i15 = getelementptr inbounds i8, ptr %6, i64 %indvars.iv
  %13 = load i8, ptr %arrayidx.i15, align 1
  %14 = and i8 %13, 1
  %15 = icmp ne i8 %14, 0
  %tobool16 = xor i1 %12, %15
  %frombool17 = zext i1 %tobool16 to i8
  %16 = load ptr, ptr %agg.result, align 8
  %cmp.i16 = icmp eq ptr %16, null
  br i1 %cmp.i16, label %if.then.i26, label %lor.lhs.false.i17

lor.lhs.false.i17:                                ; preds = %lor.end
  %arrayidx.i18 = getelementptr inbounds i8, ptr %16, i64 -4
  %17 = load i32, ptr %arrayidx.i18, align 4
  %arrayidx4.i19 = getelementptr inbounds i8, ptr %16, i64 -8
  %18 = load i32, ptr %arrayidx4.i19, align 4
  %cmp5.i20 = icmp eq i32 %17, %18
  br i1 %cmp5.i20, label %if.then.i26, label %for.inc

if.then.i26:                                      ; preds = %lor.lhs.false.i17, %lor.end
  invoke void @_ZN6vectorIbLb0EjE13expand_vectorEv(ptr noundef nonnull align 8 dereferenceable(8) %agg.result)
          to label %.noexc30 unwind label %lpad.loopexit

.noexc30:                                         ; preds = %if.then.i26
  %.pre.i27 = load ptr, ptr %agg.result, align 8
  %arrayidx8.phi.trans.insert.i28 = getelementptr inbounds i8, ptr %.pre.i27, i64 -4
  %.pre1.i29 = load i32, ptr %arrayidx8.phi.trans.insert.i28, align 4
  br label %for.inc

for.inc:                                          ; preds = %.noexc30, %lor.lhs.false.i17
  %19 = phi i32 [ %.pre1.i29, %.noexc30 ], [ %17, %lor.lhs.false.i17 ]
  %20 = phi ptr [ %.pre.i27, %.noexc30 ], [ %16, %lor.lhs.false.i17 ]
  %idx.ext.i22 = zext i32 %19 to i64
  %add.ptr.i23 = getelementptr inbounds i8, ptr %20, i64 %idx.ext.i22
  store i8 %frombool17, ptr %add.ptr.i23, align 1
  %21 = load ptr, ptr %agg.result, align 8
  %arrayidx10.i24 = getelementptr inbounds i8, ptr %21, i64 -4
  %22 = load i32, ptr %arrayidx10.i24, align 4
  %inc.i25 = add i32 %22, 1
  store i32 %inc.i25, ptr %arrayidx10.i24, align 4
  %indvars.iv.next = add nuw nsw i64 %indvars.iv, 1
  br label %for.cond, !llvm.loop !378

nrvo.skipdtor:                                    ; preds = %_ZNK6vectorIbLb0EjE4sizeEv.exit, %entry, %_ZNK6vectorIbLb0EjE5emptyEv.exit
  ret void
}